Certificate:
    Data:
        Version: 3 (0x2)
        Serial Number: 1 (0x1)
        Signature Algorithm: sha256WithRSAEncryption
        Issuer: C=GB, ST=City of London, L=London, O=City University of London, CN=Main Test CA/emailAddress=mainca@city.ac.uk
        Validity
            Not Before: Feb 13 14:49:38 2021 GMT
            Not After : Feb 11 14:49:38 2031 GMT
        Subject: C=GB, ST=City of London, O=City University of London, CN=perftest/emailAddress=pub@city.ac.uk
        Subject Public Key Info:
            Public Key Algorithm: rsaEncryption
                RSA Public-Key: (2048 bit)
                Modulus:
                    00:ce:dc:5d:04:8a:5e:74:30:db:12:1e:20:9d:bf:
                    34:94:89:7c:76:b8:a5:9c:05:df:8c:7b:5a:cb:4d:
                    43:1e:c9:a0:23:fd:fc:5d:4a:f5:97:0e:45:b8:c9:
                    a7:cb:06:92:b4:0e:03:4f:59:a2:c2:9e:ba:84:40:
                    52:e5:3b:3d:14:b2:f5:17:40:e3:f1:f5:31:d0:ab:
                    06:09:7f:ce:55:06:bf:0b:77:aa:5a:1e:79:96:e2:
                    54:33:76:da:83:b2:38:70:c1:f1:c5:b3:99:ac:6a:
                    68:10:b9:de:cc:96:16:12:e7:81:dc:8d:18:d0:f1:
                    56:36:11:67:19:58:e0:f9:19:cb:c8:f9:76:c4:8d:
                    8a:3b:cd:00:a7:6c:a7:f6:30:8c:23:c9:50:7b:f3:
                    01:b0:df:63:6b:f5:e9:eb:39:58:68:de:cd:b1:15:
                    f7:67:94:7d:ef:9e:6f:9f:d7:b3:8e:2e:05:2f:66:
                    cb:a2:e4:f5:23:f6:58:04:12:ae:8b:2d:f4:b7:db:
                    09:d1:4b:4d:f0:b5:ab:7d:e8:8f:4d:a5:96:98:ed:
                    90:91:d7:ea:ea:12:d6:c1:ee:cb:d3:4f:8b:c2:21:
                    ec:97:75:67:c9:a7:19:0a:5b:1f:3f:84:1a:72:3c:
                    24:98:7c:b1:78:6d:d9:e4:79:70:be:b1:ba:21:ec:
                    b8:41
                Exponent: 65537 (0x10001)
        X509v3 extensions:
            X509v3 Basic Constraints: 
                CA:FALSE
            Netscape Comment: 
                OpenSSL Generated Certificate
            X509v3 Subject Key Identifier: 
                9A:98:A7:F6:8F:2E:E7:02:04:96:8B:5B:58:B4:92:53:5D:90:70:00
            X509v3 Authority Key Identifier: 
                DirName:/C=GB/ST=City of London/L=London/O=City University of London/CN=Main Test CA/emailAddress=mainca@city.ac.uk
                serial:14:AF:4E:95:E4:6F:B7:A8:94:44:11:3B:AA:6D:C7:94:FC:5E:4F:0F

    Signature Algorithm: sha256WithRSAEncryption
         51:12:0a:5e:3c:36:2e:08:e3:f3:c3:43:a0:1c:2f:7c:6d:21:
         23:10:d2:91:0c:f3:f4:ee:40:1b:8a:4b:76:54:81:dd:69:f0:
         7e:9b:05:4f:73:4d:b8:fe:f9:1f:d8:e6:c7:32:d5:73:b1:ff:
         e8:0b:21:ed:f9:35:0f:ef:3b:97:cf:1f:f7:c0:91:06:04:72:
         59:cf:8d:56:3f:3f:3b:ee:55:3a:54:22:44:1a:c7:93:64:78:
         42:79:bb:81:42:63:bf:98:7a:c7:bb:bd:f3:35:25:35:71:b2:
         7c:35:43:7c:8c:69:ca:f0:bd:1e:56:b8:ad:7b:11:cb:3d:c5:
         64:96:db:16:b1:69:0d:39:e8:12:59:47:c5:6c:7f:48:fc:c8:
         53:e3:6d:f1:87:77:a6:79:d3:b5:22:c0:73:66:1e:c3:f2:27:
         84:42:7f:92:8f:c7:bf:f4:d6:1f:a1:ca:3d:7f:52:e7:5a:d0:
         f4:62:4e:d5:9a:58:84:6e:c8:22:fc:e6:0e:6d:4d:aa:00:bd:
         3b:16:65:6d:c7:a6:1e:0d:3d:17:17:87:4c:eb:6c:7a:2c:07:
         39:bd:ad:5c:30:d9:46:cc:6f:4f:5c:1f:53:02:45:69:be:84:
         e0:c9:1c:a5:6d:c5:5a:2f:b6:a7:67:ea:e9:fa:88:0d:6e:e2:
         17:c3:8c:f3
-----BEGIN CERTIFICATE-----
MIIEqzCCA5OgAwIBAgIBATANBgkqhkiG9w0BAQsFADCBlDELMAkGA1UEBhMCR0Ix
FzAVBgNVBAgMDkNpdHkgb2YgTG9uZG9uMQ8wDQYDVQQHDAZMb25kb24xIjAgBgNV
BAoMGUNpdHkgVW5pdmVyc2l0eSBvZiBMb25kb24xFTATBgNVBAMMDE1haW4gVGVz
dCBDQTEgMB4GCSqGSIb3DQEJARYRbWFpbmNhQGNpdHkuYWMudWswHhcNMjEwMjEz
MTQ0OTM4WhcNMzEwMjExMTQ0OTM4WjB8MQswCQYDVQQGEwJHQjEXMBUGA1UECAwO
Q2l0eSBvZiBMb25kb24xIjAgBgNVBAoMGUNpdHkgVW5pdmVyc2l0eSBvZiBMb25k
b24xETAPBgNVBAMMCHBlcmZ0ZXN0MR0wGwYJKoZIhvcNAQkBFg5wdWJAY2l0eS5h
Yy51azCCASIwDQYJKoZIhvcNAQEBBQADggEPADCCAQoCggEBAM7cXQSKXnQw2xIe
IJ2/NJSJfHa4pZwF34x7WstNQx7JoCP9/F1K9ZcORbjJp8sGkrQOA09ZosKeuoRA
UuU7PRSy9RdA4/H1MdCrBgl/zlUGvwt3qloeeZbiVDN22oOyOHDB8cWzmaxqaBC5
3syWFhLngdyNGNDxVjYRZxlY4PkZy8j5dsSNijvNAKdsp/YwjCPJUHvzAbDfY2v1
6es5WGjezbEV92eUfe+eb5/Xs44uBS9my6Lk9SP2WAQSrost9LfbCdFLTfC1q33o
j02llpjtkJHX6uoS1sHuy9NPi8Ih7Jd1Z8mnGQpbHz+EGnI8JJh8sXht2eR5cL6x
uiHsuEECAwEAAaOCAR0wggEZMAkGA1UdEwQCMAAwLAYJYIZIAYb4QgENBB8WHU9w
ZW5TU0wgR2VuZXJhdGVkIENlcnRpZmljYXRlMB0GA1UdDgQWBBSamKf2jy7nAgSW
i1tYtJJTXZBwADCBvgYDVR0jBIG2MIGzoYGapIGXMIGUMQswCQYDVQQGEwJHQjEX
MBUGA1UECAwOQ2l0eSBvZiBMb25kb24xDzANBgNVBAcMBkxvbmRvbjEiMCAGA1UE
CgwZQ2l0eSBVbml2ZXJzaXR5IG9mIExvbmRvbjEVMBMGA1UEAwwMTWFpbiBUZXN0
IENBMSAwHgYJKoZIhvcNAQkBFhFtYWluY2FAY2l0eS5hYy51a4IUFK9OleRvt6iU
RBE7qm3HlPxeTw8wDQYJKoZIhvcNAQELBQADggEBAFESCl48Ni4I4/PDQ6AcL3xt
ISMQ0pEM8/TuQBuKS3ZUgd1p8H6bBU9zTbj++R/Y5scy1XOx/+gLIe35NQ/vO5fP
H/fAkQYEclnPjVY/PzvuVTpUIkQax5NkeEJ5u4FCY7+Yese7vfM1JTVxsnw1Q3yM
acrwvR5WuK17Ecs9xWSW2xaxaQ056BJZR8Vsf0j8yFPjbfGHd6Z507UiwHNmHsPy
J4RCf5KPx7/01h+hyj1/Uuda0PRiTtWaWIRuyCL85g5tTaoAvTsWZW3Hph4NPRcX
h0zrbHosBzm9rVww2UbMb09cH1MCRWm+hODJHKVtxVovtqdn6un6iA1u4hfDjPM=
-----END CERTIFICATE-----
