Certificate:
    Data:
        Version: 3 (0x2)
        Serial Number: 2 (0x2)
        Signature Algorithm: sha256WithRSAEncryption
        Issuer: C=GB, ST=City of London, L=London, O=City University of London, CN=Main Test CA/emailAddress=mainca@city.ac.uk
        Validity
            Not Before: Feb 13 14:49:39 2021 GMT
            Not After : Feb 11 14:49:39 2031 GMT
        Subject: C=GB, ST=City of London, O=City University of London, CN=perftest/emailAddress=sub@city.ac.uk
        Subject Public Key Info:
            Public Key Algorithm: rsaEncryption
                RSA Public-Key: (2048 bit)
                Modulus:
                    00:b5:5b:b1:62:4f:98:95:bd:ed:fb:06:c4:e5:e4:
                    2b:c5:02:62:97:3c:4a:5f:1c:a2:c8:49:da:d2:05:
                    7c:c8:2f:b1:11:7a:27:fd:29:74:0c:eb:2e:7d:d3:
                    a0:c8:b5:a8:ac:cc:97:ae:ec:b5:f6:ca:70:dd:17:
                    90:2a:79:bc:7f:3a:16:25:5b:2a:57:65:19:75:0d:
                    da:16:6a:b3:a1:a3:06:73:e7:d5:0f:92:21:15:a2:
                    f7:12:f7:5c:13:a4:a0:8f:ae:67:3b:29:9e:b0:ce:
                    e8:8e:e5:d3:39:f9:85:8a:5c:cf:76:cc:74:4d:ef:
                    86:3b:15:be:cd:f4:f7:7d:96:a4:7e:f3:fa:40:8d:
                    cd:0f:2b:fe:48:a2:4c:1e:eb:f9:87:c1:8d:11:f9:
                    66:3f:95:70:b6:1e:f6:c9:b9:18:ce:ef:20:1e:ae:
                    92:6d:38:a7:d4:eb:12:4e:d7:95:63:a3:05:1b:c4:
                    11:24:59:aa:af:d1:ca:0a:42:a5:b5:0b:fa:97:18:
                    a7:b1:11:24:59:01:c9:19:4e:e8:68:b0:47:1c:eb:
                    fc:d3:99:b0:75:32:82:bc:69:be:76:54:a4:7a:d6:
                    8a:40:ef:00:35:5b:63:58:e5:0a:c8:e3:bc:c9:77:
                    92:09:4f:eb:bb:d8:95:c0:07:4b:fb:1b:b2:ba:3b:
                    51:23
                Exponent: 65537 (0x10001)
        X509v3 extensions:
            X509v3 Basic Constraints: 
                CA:FALSE
            Netscape Comment: 
                OpenSSL Generated Certificate
            X509v3 Subject Key Identifier: 
                6E:3A:4A:B9:02:2E:E3:A7:7C:8C:AB:FB:11:A0:2F:D2:0D:AC:EC:55
            X509v3 Authority Key Identifier: 
                DirName:/C=GB/ST=City of London/L=London/O=City University of London/CN=Main Test CA/emailAddress=mainca@city.ac.uk
                serial:14:AF:4E:95:E4:6F:B7:A8:94:44:11:3B:AA:6D:C7:94:FC:5E:4F:0F

    Signature Algorithm: sha256WithRSAEncryption
         3a:82:cd:bb:ae:d9:c4:37:87:ef:3c:7c:16:e6:52:98:91:f7:
         ec:d5:b2:c2:1f:8d:b8:88:46:77:48:01:64:b9:7b:08:ea:d4:
         7e:23:2f:e3:02:cb:7b:c8:1a:8c:99:2b:90:2e:4b:6f:40:3b:
         fd:0c:9a:4e:70:31:53:93:ba:c1:d9:67:46:f7:70:87:69:bb:
         b1:47:98:07:b2:9e:c3:71:68:ec:89:e2:96:60:d8:a1:1c:1d:
         90:20:1a:27:f4:09:1b:20:71:3e:02:2c:df:50:16:3f:11:0d:
         00:68:f2:3c:c6:7b:96:c1:92:4b:16:a9:a5:29:61:b7:2f:ff:
         05:83:24:f4:ce:d7:dd:a5:a0:17:65:c6:1e:a9:87:81:be:cf:
         a7:7f:87:90:8f:fd:c9:86:dd:5a:a7:49:85:e4:cf:4c:57:89:
         b0:0e:cd:80:0b:05:c2:29:cf:05:db:71:bb:46:0f:b0:84:09:
         33:63:9e:0e:83:d7:ca:2f:7d:ac:83:07:14:54:b8:4e:4c:5b:
         68:24:61:c0:82:20:27:04:67:45:dc:32:ef:5a:c5:f7:36:09:
         3e:f6:08:a1:b8:dd:4a:05:d5:ce:2a:90:92:36:20:ae:09:70:
         2a:76:9a:ff:da:d7:a8:d5:9a:3c:53:db:3a:4e:b1:47:18:ce:
         64:45:8e:28
-----BEGIN CERTIFICATE-----
MIIEqzCCA5OgAwIBAgIBAjANBgkqhkiG9w0BAQsFADCBlDELMAkGA1UEBhMCR0Ix
FzAVBgNVBAgMDkNpdHkgb2YgTG9uZG9uMQ8wDQYDVQQHDAZMb25kb24xIjAgBgNV
BAoMGUNpdHkgVW5pdmVyc2l0eSBvZiBMb25kb24xFTATBgNVBAMMDE1haW4gVGVz
dCBDQTEgMB4GCSqGSIb3DQEJARYRbWFpbmNhQGNpdHkuYWMudWswHhcNMjEwMjEz
MTQ0OTM5WhcNMzEwMjExMTQ0OTM5WjB8MQswCQYDVQQGEwJHQjEXMBUGA1UECAwO
Q2l0eSBvZiBMb25kb24xIjAgBgNVBAoMGUNpdHkgVW5pdmVyc2l0eSBvZiBMb25k
b24xETAPBgNVBAMMCHBlcmZ0ZXN0MR0wGwYJKoZIhvcNAQkBFg5zdWJAY2l0eS5h
Yy51azCCASIwDQYJKoZIhvcNAQEBBQADggEPADCCAQoCggEBALVbsWJPmJW97fsG
xOXkK8UCYpc8Sl8coshJ2tIFfMgvsRF6J/0pdAzrLn3ToMi1qKzMl67stfbKcN0X
kCp5vH86FiVbKldlGXUN2hZqs6GjBnPn1Q+SIRWi9xL3XBOkoI+uZzspnrDO6I7l
0zn5hYpcz3bMdE3vhjsVvs30932WpH7z+kCNzQ8r/kiiTB7r+YfBjRH5Zj+VcLYe
9sm5GM7vIB6ukm04p9TrEk7XlWOjBRvEESRZqq/RygpCpbUL+pcYp7ERJFkByRlO
6GiwRxzr/NOZsHUygrxpvnZUpHrWikDvADVbY1jlCsjjvMl3kglP67vYlcAHS/sb
sro7USMCAwEAAaOCAR0wggEZMAkGA1UdEwQCMAAwLAYJYIZIAYb4QgENBB8WHU9w
ZW5TU0wgR2VuZXJhdGVkIENlcnRpZmljYXRlMB0GA1UdDgQWBBRuOkq5Ai7jp3yM
q/sRoC/SDazsVTCBvgYDVR0jBIG2MIGzoYGapIGXMIGUMQswCQYDVQQGEwJHQjEX
MBUGA1UECAwOQ2l0eSBvZiBMb25kb24xDzANBgNVBAcMBkxvbmRvbjEiMCAGA1UE
CgwZQ2l0eSBVbml2ZXJzaXR5IG9mIExvbmRvbjEVMBMGA1UEAwwMTWFpbiBUZXN0
IENBMSAwHgYJKoZIhvcNAQkBFhFtYWluY2FAY2l0eS5hYy51a4IUFK9OleRvt6iU
RBE7qm3HlPxeTw8wDQYJKoZIhvcNAQELBQADggEBADqCzbuu2cQ3h+88fBbmUpiR
9+zVssIfjbiIRndIAWS5ewjq1H4jL+MCy3vIGoyZK5AuS29AO/0Mmk5wMVOTusHZ
Z0b3cIdpu7FHmAeynsNxaOyJ4pZg2KEcHZAgGif0CRsgcT4CLN9QFj8RDQBo8jzG
e5bBkksWqaUpYbcv/wWDJPTO192loBdlxh6ph4G+z6d/h5CP/cmG3VqnSYXkz0xX
ibAOzYALBcIpzwXbcbtGD7CECTNjng6D18ovfayDBxRUuE5MW2gkYcCCICcEZ0Xc
Mu9axfc2CT72CKG43UoF1c4qkJI2IK4JcCp2mv/a16jVmjxT2zpOsUcYzmRFjig=
-----END CERTIFICATE-----
